target datalayout = "e-m:e-p270:32:32-p271:32:32-p272:64:64-i64:64-i128:128-f80:128-n8:16:32:64-S128"
target triple = "x86_64-pc-linux-gnu"

@.str = private unnamed_addr constant [30 x i8] c"../openssl/crypto/ui/ui_lib.c\00", align 1

; Function Attrs: nounwind uwtable
define i32 @UI_dup_verify_string(ptr noundef %0, ptr noundef %1, i32 noundef %2, ptr noundef %3, i32 noundef %4, i32 noundef %5, ptr noundef %6) #0 {
  %8 = alloca i32, align 4
  %9 = alloca ptr, align 8
  %10 = alloca ptr, align 8
  %11 = alloca i32, align 4
  %12 = alloca ptr, align 8
  %13 = alloca i32, align 4
  %14 = alloca i32, align 4
  %15 = alloca ptr, align 8
  %16 = alloca ptr, align 8
  %17 = alloca i32, align 4
  store ptr %0, ptr %9, align 8, !tbaa !8
  store ptr %1, ptr %10, align 8, !tbaa !34
  store i32 %2, ptr %11, align 4, !tbaa !35
  store ptr %3, ptr %12, align 8, !tbaa !34
  store i32 %4, ptr %13, align 4, !tbaa !35
  store i32 %5, ptr %14, align 4, !tbaa !35
  store ptr %6, ptr %15, align 8, !tbaa !34
  call void @llvm.lifetime.start.p0(i64 8, ptr %16) #7
  store ptr null, ptr %16, align 8, !tbaa !34
  %18 = load ptr, ptr %10, align 8, !tbaa !34
  %19 = icmp ne ptr %18, null
  br i1 %19, label %20, label %27

20:                                               ; preds = %7
  %21 = load ptr, ptr %10, align 8, !tbaa !34
  %22 = call noalias ptr @CRYPTO_strdup(ptr noundef %21, ptr noundef @.str, i32 noundef 236)
  store ptr %22, ptr %16, align 8, !tbaa !34
  %23 = load ptr, ptr %16, align 8, !tbaa !34
  %24 = icmp eq ptr %23, null
  br i1 %24, label %25, label %26

25:                                               ; preds = %20
  store i32 -1, ptr %8, align 4
  store i32 1, ptr %17, align 4
  br label %36

26:                                               ; preds = %20
  br label %27

27:                                               ; preds = %26, %7
  %28 = load ptr, ptr %9, align 8, !tbaa !8
  %29 = load ptr, ptr %16, align 8, !tbaa !34
  %30 = load i32, ptr %11, align 4, !tbaa !35
  %31 = load ptr, ptr %12, align 8, !tbaa !34
  %32 = load i32, ptr %13, align 4, !tbaa !35
  %33 = load i32, ptr %14, align 4, !tbaa !35
  %34 = load ptr, ptr %15, align 8, !tbaa !34
  %35 = call i32 @general_allocate_string(ptr noundef %28, ptr noundef %29, i32 noundef 1, i32 noundef 2, i32 noundef %30, ptr noundef %31, i32 noundef %32, i32 noundef %33, ptr noundef %34)
  store i32 %35, ptr %8, align 4
  store i32 1, ptr %17, align 4
  br label %36

36:                                               ; preds = %27, %25
  call void @llvm.lifetime.end.p0(i64 8, ptr %16) #7
  %37 = load i32, ptr %8, align 4
  ret i32 %37
}