; Function Attrs: nounwind uwtable
define range(i32 1, 0) i32 @UI_dup_verify_string(ptr noundef captures(none) %0, ptr noundef %1, i32 noundef %2, ptr noundef %3, i32 noundef %4, i32 noundef %5, ptr noundef %6) local_unnamed_addr #0 {
  %.not = icmp eq ptr %1, null
  br i1 %.not, label %11, label %8

8:                                                ; preds = %7
  %9 = tail call noalias ptr @CRYPTO_strdup(ptr noundef nonnull %1, ptr noundef nonnull @.str, i32 noundef 236) #8
  %10 = icmp eq ptr %9, null
  br i1 %10, label %13, label %11

11:                                               ; preds = %8, %7
  %.0 = phi ptr [ %9, %8 ], [ null, %7 ]
  %12 = tail call fastcc i32 @general_allocate_string(ptr noundef %0, ptr noundef %.0, i32 noundef 1, i32 noundef 2, i32 noundef %2, ptr noundef %3, i32 noundef %4, i32 noundef %5, ptr noundef %6)
  br label %13

13:                                               ; preds = %8, %11
  %.010 = phi i32 [ %12, %11 ], [ -1, %8 ]
  ret i32 %.010
}